Certificate:
    Data:
        Version: 3 (0x2)
        Serial Number: 1 (0x1)
    Signature Algorithm: sha256WithRSAEncryption
        Issuer: CN=ca.localdomain, C=FR, ST=BdR, L=Aix, O=fD, OU=Tests
        Validity
            Not Before: Mar 17 14:42:22 2018 GMT
            Not After : Mar 17 14:42:22 2019 GMT
        Subject: C=FR, ST=BdR, O=fD, OU=Tests, CN=mme.localdomain
        Subject Public Key Info:
            Public Key Algorithm: rsaEncryption
                Public-Key: (1024 bit)
                Modulus:
                    00:a8:26:1f:a1:8f:c3:a1:4e:47:7b:2c:6e:21:8d:
                    4f:eb:de:78:cf:9a:c6:43:95:31:a3:5b:7d:69:f5:
                    ef:5d:f3:74:a9:58:0a:f8:f4:1c:8c:d7:de:8a:16:
                    2a:0b:f6:f4:f0:c7:c9:de:ed:69:15:ba:5d:c2:6a:
                    18:9b:d1:df:e3:0b:c9:69:64:08:72:40:96:55:65:
                    05:91:45:e9:38:95:31:95:70:71:5d:43:ea:6b:10:
                    f8:6d:ed:22:9f:2c:cb:9a:7c:1a:92:58:b1:0e:fe:
                    ad:d0:b6:04:79:ad:66:e7:d1:b5:e0:b4:f9:a2:fe:
                    50:4c:7a:5b:46:7e:67:53:1d
                Exponent: 65537 (0x10001)
        X509v3 extensions:
            X509v3 Basic Constraints: 
                CA:FALSE
            Netscape Comment: 
                OpenSSL Generated Certificate
            X509v3 Subject Key Identifier: 
                E1:E1:B8:9B:62:F9:F2:0F:3C:6E:A9:04:64:C2:35:DA:9E:3B:26:7D
            X509v3 Authority Key Identifier: 
                keyid:F7:4E:4B:B3:B2:85:DB:16:1F:A0:6A:5C:E2:39:72:63:F8:84:73:A5

    Signature Algorithm: sha256WithRSAEncryption
         9b:4a:26:73:df:40:f3:b4:39:16:ac:4f:45:17:4c:c9:b0:6b:
         ea:f6:16:33:c7:7f:0a:bc:06:6a:62:bc:ed:e3:0e:a0:54:79:
         57:cd:60:45:c2:e3:5d:d8:74:67:c4:af:50:64:e7:82:6c:53:
         7f:f2:0f:c4:09:70:3a:36:4a:d7:c9:5f:6c:3e:6e:c1:46:9e:
         02:aa:68:a1:16:a6:ff:8a:26:6f:cc:9d:5a:0e:da:c3:76:20:
         ac:b1:bb:e0:c1:e5:2a:3a:f4:a4:82:ed:69:6d:c3:75:dd:7f:
         f0:bf:f6:4f:d7:ac:4b:f1:a7:e4:63:55:8e:a8:74:bc:0d:56:
         ef:01
-----BEGIN CERTIFICATE-----
MIICojCCAgugAwIBAgIBATANBgkqhkiG9w0BAQsFADBfMRcwFQYDVQQDDA5jYS5s
b2NhbGRvbWFpbjELMAkGA1UEBhMCRlIxDDAKBgNVBAgMA0JkUjEMMAoGA1UEBwwD
QWl4MQswCQYDVQQKDAJmRDEOMAwGA1UECwwFVGVzdHMwHhcNMTgwMzE3MTQ0MjIy
WhcNMTkwMzE3MTQ0MjIyWjBSMQswCQYDVQQGEwJGUjEMMAoGA1UECAwDQmRSMQsw
CQYDVQQKDAJmRDEOMAwGA1UECwwFVGVzdHMxGDAWBgNVBAMMD21tZS5sb2NhbGRv
bWFpbjCBnzANBgkqhkiG9w0BAQEFAAOBjQAwgYkCgYEAqCYfoY/DoU5HeyxuIY1P
6954z5rGQ5Uxo1t9afXvXfN0qVgK+PQcjNfeihYqC/b08MfJ3u1pFbpdwmoYm9Hf
4wvJaWQIckCWVWUFkUXpOJUxlXBxXUPqaxD4be0inyzLmnwaklixDv6t0LYEea1m
59G14LT5ov5QTHpbRn5nUx0CAwEAAaN7MHkwCQYDVR0TBAIwADAsBglghkgBhvhC
AQ0EHxYdT3BlblNTTCBHZW5lcmF0ZWQgQ2VydGlmaWNhdGUwHQYDVR0OBBYEFOHh
uJti+fIPPG6pBGTCNdqeOyZ9MB8GA1UdIwQYMBaAFPdOS7OyhdsWH6BqXOI5cmP4
hHOlMA0GCSqGSIb3DQEBCwUAA4GBAJtKJnPfQPO0ORasT0UXTMmwa+r2FjPHfwq8
BmpivO3jDqBUeVfNYEXC413YdGfEr1Bk54JsU3/yD8QJcDo2StfJX2w+bsFGngKq
aKEWpv+KJm/MnVoO2sN2IKyxu+DB5So69KSC7Wltw3Xdf/C/9k/XrEvxp+RjVY6o
dLwNVu8B
-----END CERTIFICATE-----
